target datalayout = "e-m:e-p270:32:32-p271:32:32-p272:64:64-i64:64-i128:128-f80:128-n8:16:32:64-S128"
target triple = "x86_64-unknown-linux-gnu"

%struct.ecc_set_type = type { i32, i32, ptr, ptr, ptr, ptr, ptr, ptr, ptr, ptr, i32, i32, i32 }
%struct.ecc_key = type { i32, i32, i32, i32, ptr, ptr, %struct.ecc_point, [1 x %struct.sp_int], ptr }
%struct.ecc_point = type { [1 x %struct.sp_int], [1 x %struct.sp_int], [1 x %struct.sp_int] }
%struct.sp_int = type { i32, i32, [129 x i64] }
%struct.ecc_curve_spec = type { ptr, ptr, ptr, ptr, ptr, ptr, ptr, i32, i32, i8 }

; Function Attrs: nounwind uwtable
define internal i32 @wc_ecc_get_curve_order_bit_count(ptr noundef %dp) #0 {
entry:
  %retval = alloca i32, align 4
  %dp.addr = alloca ptr, align 8
  %err = alloca i32, align 4
  %orderBits = alloca i32, align 4
  %spec_ints = alloca [160 x i8], align 16
  %curve_lcl = alloca %struct.ecc_curve_spec, align 8
  %curve = alloca ptr, align 8
  store ptr %dp, ptr %dp.addr, align 8
  store i32 0, ptr %err, align 4
  store ptr %curve_lcl, ptr %curve, align 8
  %0 = load ptr, ptr %curve, align 8
  call void @llvm.memset.p0.i64(ptr align 8 %0, i8 0, i64 72, i1 false)
  %arraydecay = getelementptr inbounds [160 x i8], ptr %spec_ints, i64 0, i64 0
  %1 = load ptr, ptr %curve, align 8
  %spec_ints1 = getelementptr inbounds %struct.ecc_curve_spec, ptr %1, i32 0, i32 6
  store ptr %arraydecay, ptr %spec_ints1, align 8
  %2 = load ptr, ptr %curve, align 8
  %spec_count = getelementptr inbounds %struct.ecc_curve_spec, ptr %2, i32 0, i32 7
  store i32 1, ptr %spec_count, align 8
  br label %do.body

do.body:                                          ; preds = %entry
  br label %do.end

do.end:                                           ; preds = %do.body
  %3 = load i32, ptr %err, align 4
  %cmp = icmp eq i32 %3, 0
  br i1 %cmp, label %if.then, label %if.end

if.then:                                          ; preds = %do.end
  %4 = load ptr, ptr %dp.addr, align 8
  %call = call i32 @wc_ecc_curve_load(ptr noundef %4, ptr noundef %curve, i8 noundef zeroext 8)
  store i32 %call, ptr %err, align 4
  br label %if.end

if.end:                                           ; preds = %if.then, %do.end
  %5 = load i32, ptr %err, align 4
  %cmp2 = icmp ne i32 %5, 0
  br i1 %cmp2, label %if.then3, label %if.end6

if.then3:                                         ; preds = %if.end
  br label %do.body4

do.body4:                                         ; preds = %if.then3
  br label %do.end5

do.end5:                                          ; preds = %do.body4
  %6 = load i32, ptr %err, align 4
  store i32 %6, ptr %retval, align 4
  br label %return

if.end6:                                          ; preds = %if.end
  %7 = load ptr, ptr %curve, align 8
  %order = getelementptr inbounds %struct.ecc_curve_spec, ptr %7, i32 0, i32 3
  %8 = load ptr, ptr %order, align 8
  %call7 = call i32 @sp_count_bits(ptr noundef %8)
  store i32 %call7, ptr %orderBits, align 4
  %9 = load ptr, ptr %curve, align 8
  call void @wc_ecc_curve_free(ptr noundef %9)
  br label %do.body8

do.body8:                                         ; preds = %if.end6
  br label %do.end9

do.end9:                                          ; preds = %do.body8
  %10 = load i32, ptr %orderBits, align 4
  store i32 %10, ptr %retval, align 4
  br label %return

return:                                           ; preds = %do.end9, %do.end5
  %11 = load i32, ptr %retval, align 4
  ret i32 %11
}

; Function Attrs: nounwind uwtable
define i32 @wc_ecc_sig_size(ptr noundef %key) #0 {
entry:
  %retval = alloca i32, align 4
  %key.addr = alloca ptr, align 8
  %maxSigSz = alloca i32, align 4
  %orderBits = alloca i32, align 4
  %keySz = alloca i32, align 4
  store ptr %key, ptr %key.addr, align 8
  %0 = load ptr, ptr %key.addr, align 8
  %cmp = icmp eq ptr %0, null
  br i1 %cmp, label %if.then, label %lor.lhs.false

lor.lhs.false:                                    ; preds = %entry
  %1 = load ptr, ptr %key.addr, align 8
  %dp = getelementptr inbounds %struct.ecc_key, ptr %1, i32 0, i32 4
  %2 = load ptr, ptr %dp, align 8
  %cmp1 = icmp eq ptr %2, null
  br i1 %cmp1, label %if.then, label %if.end

if.then:                                          ; preds = %lor.lhs.false, %entry
  store i32 0, ptr %retval, align 4
  br label %return

if.end:                                           ; preds = %lor.lhs.false
  %3 = load ptr, ptr %key.addr, align 8
  %dp2 = getelementptr inbounds %struct.ecc_key, ptr %3, i32 0, i32 4
  %4 = load ptr, ptr %dp2, align 8
  %size = getelementptr inbounds %struct.ecc_set_type, ptr %4, i32 0, i32 0
  %5 = load i32, ptr %size, align 8
  store i32 %5, ptr %keySz, align 4
  %6 = load ptr, ptr %key.addr, align 8
  %dp3 = getelementptr inbounds %struct.ecc_key, ptr %6, i32 0, i32 4
  %7 = load ptr, ptr %dp3, align 8
  %call = call i32 @wc_ecc_get_curve_order_bit_count(ptr noundef %7)
  store i32 %call, ptr %orderBits, align 4
  %8 = load i32, ptr %orderBits, align 4
  %9 = load i32, ptr %keySz, align 4
  %mul = mul nsw i32 %9, 8
  %cmp4 = icmp sgt i32 %8, %mul
  br i1 %cmp4, label %if.then5, label %if.end6

if.then5:                                         ; preds = %if.end
  %10 = load i32, ptr %orderBits, align 4
  %add = add nsw i32 %10, 7
  %div = sdiv i32 %add, 8
  store i32 %div, ptr %keySz, align 4
  br label %if.end6

if.end6:                                          ; preds = %if.then5, %if.end
  %11 = load i32, ptr %keySz, align 4
  %mul7 = mul nsw i32 %11, 2
  %add8 = add nsw i32 %mul7, 7
  store i32 %add8, ptr %maxSigSz, align 4
  %12 = load i32, ptr %orderBits, align 4
  %rem = srem i32 %12, 8
  %cmp9 = icmp eq i32 %rem, 0
  br i1 %cmp9, label %if.then10, label %if.end12

if.then10:                                        ; preds = %if.end6
  %13 = load i32, ptr %maxSigSz, align 4
  %add11 = add nsw i32 %13, 2
  store i32 %add11, ptr %maxSigSz, align 4
  br label %if.end12

if.end12:                                         ; preds = %if.then10, %if.end6
  %14 = load i32, ptr %maxSigSz, align 4
  %cmp13 = icmp slt i32 %14, 130
  br i1 %cmp13, label %if.then14, label %if.end15

if.then14:                                        ; preds = %if.end12
  %15 = load i32, ptr %maxSigSz, align 4
  %sub = sub nsw i32 %15, 1
  store i32 %sub, ptr %maxSigSz, align 4
  br label %if.end15

if.end15:                                         ; preds = %if.then14, %if.end12
  %16 = load i32, ptr %maxSigSz, align 4
  store i32 %16, ptr %retval, align 4
  br label %return

return:                                           ; preds = %if.end15, %if.then
  %17 = load i32, ptr %retval, align 4
  ret i32 %17
}