; Function Attrs: nounwind uwtable
define range(i32 -2147483642, -2147483648) i32 @wc_ecc_sig_size(ptr noundef readonly %key) local_unnamed_addr #2 {
entry:
  %spec_ints.i = alloca [160 x i8], align 16
  %curve_lcl.i = alloca %struct.ecc_curve_spec, align 8
  %cmp = icmp eq ptr %key, null
  br i1 %cmp, label %return, label %lor.lhs.false

lor.lhs.false:                                    ; preds = %entry
  %dp = getelementptr inbounds nuw i8, ptr %key, i64 16
  %0 = load ptr, ptr %dp, align 8
  %cmp1 = icmp eq ptr %0, null
  br i1 %cmp1, label %return, label %if.end

if.end:                                           ; preds = %lor.lhs.false
  %1 = load i32, ptr %0, align 8
  call void @llvm.lifetime.start.p0(i64 160, ptr nonnull %spec_ints.i)
  call void @llvm.lifetime.start.p0(i64 72, ptr nonnull %curve_lcl.i)
  call void @llvm.memset.p0.i64(ptr noundef nonnull align 8 dereferenceable(72) %curve_lcl.i, i8 0, i64 72, i1 false)
  %spec_ints1.i = getelementptr inbounds nuw i8, ptr %curve_lcl.i, i64 48
  store ptr %spec_ints.i, ptr %spec_ints1.i, align 8
  %spec_count.i = getelementptr inbounds nuw i8, ptr %curve_lcl.i, i64 56
  store i32 1, ptr %spec_count.i, align 8
  %call.i = call fastcc i32 @wc_ecc_curve_load(ptr noundef nonnull %0, ptr nonnull %curve_lcl.i, i8 noundef zeroext 8)
  %cmp2.not.i = icmp eq i32 %call.i, 0
  br i1 %cmp2.not.i, label %if.end6.i, label %wc_ecc_get_curve_order_bit_count.exit

if.end6.i:                                        ; preds = %if.end
  %order.i = getelementptr inbounds nuw i8, ptr %curve_lcl.i, i64 24
  %2 = load ptr, ptr %order.i, align 8
  %call7.i = call i32 @sp_count_bits(ptr noundef %2) #19
  call fastcc void @wc_ecc_curve_free(ptr noundef nonnull %curve_lcl.i)
  br label %wc_ecc_get_curve_order_bit_count.exit

wc_ecc_get_curve_order_bit_count.exit:            ; preds = %if.end, %if.end6.i
  %retval.0.i = phi i32 [ %call7.i, %if.end6.i ], [ %call.i, %if.end ]
  call void @llvm.lifetime.end.p0(i64 160, ptr nonnull %spec_ints.i)
  call void @llvm.lifetime.end.p0(i64 72, ptr nonnull %curve_lcl.i)
  %mul = shl nsw i32 %1, 3
  %cmp4 = icmp sgt i32 %retval.0.i, %mul
  br i1 %cmp4, label %if.then5, label %if.end6

if.then5:                                         ; preds = %wc_ecc_get_curve_order_bit_count.exit
  %add = add nsw i32 %retval.0.i, 7
  %div = sdiv i32 %add, 8
  br label %if.end6

if.end6:                                          ; preds = %if.then5, %wc_ecc_get_curve_order_bit_count.exit
  %keySz.0 = phi i32 [ %div, %if.then5 ], [ %1, %wc_ecc_get_curve_order_bit_count.exit ]
  %mul7 = shl nsw i32 %keySz.0, 1
  %3 = and i32 %retval.0.i, 7
  %cmp9 = icmp eq i32 %3, 0
  %spec.select.v = select i1 %cmp9, i32 9, i32 7
  %spec.select = add nsw i32 %mul7, %spec.select.v
  %cmp13 = icmp slt i32 %spec.select, 130
  %sub = sext i1 %cmp13 to i32
  %maxSigSz.1 = add nsw i32 %spec.select, %sub
  br label %return

return:                                           ; preds = %entry, %lor.lhs.false, %if.end6
  %retval.0 = phi i32 [ %maxSigSz.1, %if.end6 ], [ 0, %lor.lhs.false ], [ 0, %entry ]
  ret i32 %retval.0
}